target datalayout = "e-m:e-p270:32:32-p271:32:32-p272:64:64-i64:64-i128:128-f80:128-n8:16:32:64-S128"
target triple = "x86_64-pc-linux-gnu"

%struct.Aes = type { [60 x i32], i32, i32, [8 x i8], [4 x i32], [4 x i32], [2 x i32], i32, [4 x i8], %struct.Gcm, ptr, [8 x i8] }
%struct.Gcm = type { [16 x i8], [32 x [16 x i8]] }

; Function Attrs: nounwind uwtable
define i32 @wc_AesCbcDecryptWithKey(ptr noundef %0, ptr noundef %1, i32 noundef %2, ptr noundef %3, i32 noundef %4, ptr noundef %5) #0 {
  %7 = alloca i32, align 4
  %8 = alloca ptr, align 8
  %9 = alloca ptr, align 8
  %10 = alloca i32, align 4
  %11 = alloca ptr, align 8
  %12 = alloca i32, align 4
  %13 = alloca ptr, align 8
  %14 = alloca i32, align 4
  %15 = alloca [1 x %struct.Aes], align 16
  %16 = alloca i32, align 4
  store ptr %0, ptr %8, align 8, !tbaa !3
  store ptr %1, ptr %9, align 8, !tbaa !3
  store i32 %2, ptr %10, align 4, !tbaa !8
  store ptr %3, ptr %11, align 8, !tbaa !3
  store i32 %4, ptr %12, align 4, !tbaa !8
  store ptr %5, ptr %13, align 8, !tbaa !3
  call void @llvm.lifetime.start.p0(i64 4, ptr %14) #4
  store i32 0, ptr %14, align 4, !tbaa !8
  call void @llvm.lifetime.start.p0(i64 848, ptr %15) #4
  %17 = load ptr, ptr %8, align 8, !tbaa !3
  %18 = icmp eq ptr %17, null
  br i1 %18, label %28, label %19

19:                                               ; preds = %6
  %20 = load ptr, ptr %9, align 8, !tbaa !3
  %21 = icmp eq ptr %20, null
  br i1 %21, label %28, label %22

22:                                               ; preds = %19
  %23 = load ptr, ptr %11, align 8, !tbaa !3
  %24 = icmp eq ptr %23, null
  br i1 %24, label %28, label %25

25:                                               ; preds = %22
  %26 = load ptr, ptr %13, align 8, !tbaa !3
  %27 = icmp eq ptr %26, null
  br i1 %27, label %28, label %29

28:                                               ; preds = %25, %22, %19, %6
  store i32 -173, ptr %7, align 4
  store i32 1, ptr %16, align 4
  br label %52

29:                                               ; preds = %25
  %30 = getelementptr inbounds [1 x %struct.Aes], ptr %15, i64 0, i64 0
  %31 = call i32 @wc_AesInit(ptr noundef %30, ptr noundef null, i32 noundef -2)
  store i32 %31, ptr %14, align 4, !tbaa !8
  %32 = load i32, ptr %14, align 4, !tbaa !8
  %33 = icmp eq i32 %32, 0
  br i1 %33, label %34, label %50

34:                                               ; preds = %29
  %35 = getelementptr inbounds [1 x %struct.Aes], ptr %15, i64 0, i64 0
  %36 = load ptr, ptr %11, align 8, !tbaa !3
  %37 = load i32, ptr %12, align 4, !tbaa !8
  %38 = load ptr, ptr %13, align 8, !tbaa !3
  %39 = call i32 @wc_AesSetKey(ptr noundef %35, ptr noundef %36, i32 noundef %37, ptr noundef %38, i32 noundef 1)
  store i32 %39, ptr %14, align 4, !tbaa !8
  %40 = load i32, ptr %14, align 4, !tbaa !8
  %41 = icmp eq i32 %40, 0
  br i1 %41, label %42, label %48

42:                                               ; preds = %34
  %43 = getelementptr inbounds [1 x %struct.Aes], ptr %15, i64 0, i64 0
  %44 = load ptr, ptr %8, align 8, !tbaa !3
  %45 = load ptr, ptr %9, align 8, !tbaa !3
  %46 = load i32, ptr %10, align 4, !tbaa !8
  %47 = call i32 @wc_AesCbcDecrypt(ptr noundef %43, ptr noundef %44, ptr noundef %45, i32 noundef %46)
  store i32 %47, ptr %14, align 4, !tbaa !8
  br label %48

48:                                               ; preds = %42, %34
  %49 = getelementptr inbounds [1 x %struct.Aes], ptr %15, i64 0, i64 0
  call void @wc_AesFree(ptr noundef %49)
  br label %50

50:                                               ; preds = %48, %29
  %51 = load i32, ptr %14, align 4, !tbaa !8
  store i32 %51, ptr %7, align 4
  store i32 1, ptr %16, align 4
  br label %52

52:                                               ; preds = %50, %28
  call void @llvm.lifetime.end.p0(i64 848, ptr %15) #4
  call void @llvm.lifetime.end.p0(i64 4, ptr %14) #4
  %53 = load i32, ptr %7, align 4
  ret i32 %53
}