; Function Attrs: nounwind uwtable
define i32 @wc_AesCbcDecryptWithKey(ptr noundef %0, ptr noundef %1, i32 noundef %2, ptr noundef %3, i32 noundef %4, ptr noundef %5) local_unnamed_addr #0 {
  %7 = alloca [1 x %struct.Aes], align 16
  call void @llvm.lifetime.start.p0(i64 848, ptr nonnull %7) #3
  %8 = icmp eq ptr %0, null
  %9 = icmp eq ptr %1, null
  %or.cond = or i1 %8, %9
  %10 = icmp eq ptr %3, null
  %or.cond3 = or i1 %or.cond, %10
  %11 = icmp eq ptr %5, null
  %or.cond5 = or i1 %or.cond3, %11
  br i1 %or.cond5, label %21, label %12

12:                                               ; preds = %6
  %13 = call i32 @wc_AesInit(ptr noundef nonnull %7, ptr noundef null, i32 noundef -2) #3
  %14 = icmp eq i32 %13, 0
  br i1 %14, label %15, label %21

15:                                               ; preds = %12
  %16 = call i32 @wc_AesSetKey(ptr noundef nonnull %7, ptr noundef nonnull %3, i32 noundef %4, ptr noundef nonnull %5, i32 noundef 1) #3
  %17 = icmp eq i32 %16, 0
  br i1 %17, label %18, label %20

18:                                               ; preds = %15
  %19 = call i32 @wc_AesCbcDecrypt(ptr noundef nonnull %7, ptr noundef nonnull %0, ptr noundef nonnull %1, i32 noundef %2) #3
  br label %20

20:                                               ; preds = %18, %15
  %.1 = phi i32 [ %19, %18 ], [ %16, %15 ]
  call void @wc_AesFree(ptr noundef nonnull %7) #3
  br label %21

21:                                               ; preds = %12, %20, %6
  %.018 = phi i32 [ -173, %6 ], [ %.1, %20 ], [ %13, %12 ]
  call void @llvm.lifetime.end.p0(i64 848, ptr nonnull %7) #3
  ret i32 %.018
}